; Function Attrs: mustprogress uwtable
define noundef ptr @uset_openPattern_75(ptr noundef %pattern, i32 noundef %patternLength, ptr noundef %ec) local_unnamed_addr #0 personality ptr @__gxx_personality_v0 {
entry:
  %pat = alloca %"class.icu_75::UnicodeString", align 8
  %agg.tmp = alloca %"class.icu_75::ConstChar16Ptr", align 8
  %cmp = icmp eq i32 %patternLength, -1
  %conv = zext i1 %cmp to i8
  store ptr %pattern, ptr %agg.tmp, align 8
  invoke void @_ZN6icu_7513UnicodeStringC1EaNS_14ConstChar16PtrEi(ptr noundef nonnull align 8 dereferenceable(64) %pat, i8 noundef signext %conv, ptr noundef nonnull %agg.tmp, i32 noundef %patternLength)
          to label %invoke.cont unwind label %lpad

invoke.cont:                                      ; preds = %entry
  %0 = load ptr, ptr %agg.tmp, align 8
  call void asm sideeffect "", "rm,~{memory},~{dirflag},~{fpsr},~{flags}"(ptr %0) #3, !srcloc !4
  %call = call noundef ptr @_ZN6icu_757UMemorynwEm(i64 noundef 200) #3
  %new.isnull = icmp eq ptr %call, null
  br i1 %new.isnull, label %if.then, label %new.notnull

new.notnull:                                      ; preds = %invoke.cont
  invoke void @_ZN6icu_7510UnicodeSetC1ERKNS_13UnicodeStringER10UErrorCode(ptr noundef nonnull align 8 dereferenceable(200) %call, ptr noundef nonnull align 8 dereferenceable(64) %pat, ptr noundef nonnull align 4 dereferenceable(4) %ec)
          to label %if.end unwind label %lpad1

if.then:                                          ; preds = %invoke.cont
  store i32 7, ptr %ec, align 4
  br label %cleanup

lpad:                                             ; preds = %entry
  %1 = landingpad { ptr, i32 }
          cleanup
  %2 = load ptr, ptr %agg.tmp, align 8
  call void asm sideeffect "", "rm,~{memory},~{dirflag},~{fpsr},~{flags}"(ptr %2) #3, !srcloc !4
  br label %eh.resume

lpad1:                                            ; preds = %new.notnull
  %3 = landingpad { ptr, i32 }
          cleanup
  call void @_ZN6icu_757UMemorydlEPv(ptr noundef nonnull %call) #3
  call void @_ZN6icu_7513UnicodeStringD1Ev(ptr noundef nonnull align 8 dereferenceable(64) %pat) #3
  br label %eh.resume

if.end:                                           ; preds = %new.notnull
  %4 = load i32, ptr %ec, align 4
  %cmp.i = icmp slt i32 %4, 1
  br i1 %cmp.i, label %cleanup, label %delete.notnull

delete.notnull:                                   ; preds = %if.end
  call void @_ZN6icu_7510UnicodeSetD1Ev(ptr noundef nonnull align 8 dereferenceable(200) %call) #3
  call void @_ZN6icu_757UMemorydlEPv(ptr noundef nonnull %call) #3
  br label %cleanup

cleanup:                                          ; preds = %if.end, %delete.notnull, %if.then
  %retval.0 = phi ptr [ null, %if.then ], [ null, %delete.notnull ], [ %call, %if.end ]
  call void @_ZN6icu_7513UnicodeStringD1Ev(ptr noundef nonnull align 8 dereferenceable(64) %pat) #3
  ret ptr %retval.0

eh.resume:                                        ; preds = %lpad1, %lpad
  %.pn = phi { ptr, i32 } [ %3, %lpad1 ], [ %1, %lpad ]
  resume { ptr, i32 } %.pn
}